; ModuleID = 'bench/opencv/original/govbackend.ll'
source_filename = "bench/opencv/original/govbackend.ll"
target datalayout = "e-m:e-p270:32:32-p271:32:32-p272:64:64-i64:64-i128:128-f80:128-n8:16:32:64-S128"
target triple = "x86_64-pc-linux-gnu"

%"class.std::ios_base::Init" = type { i8 }
%"class.cv::gapi::GBackend" = type { %"class.std::shared_ptr" }
%"class.std::shared_ptr" = type { %"class.std::__shared_ptr" }
%"class.std::__shared_ptr" = type { ptr, %"class.std::__shared_count" }
%"class.std::__shared_count" = type { ptr }
%"class.std::runtime_error" = type { %"class.std::exception", %"struct.std::__cow_string" }
%"class.std::exception" = type { ptr }
%"struct.std::__cow_string" = type { %union.anon }
%union.anon = type { ptr }

$_ZN2cv4util11throw_errorISt13runtime_errorEEvOT_ = comdat any

@_ZStL8__ioinit = internal global %"class.std::ios_base::Init" zeroinitializer, align 1
@__dso_handle = external hidden global i8
@.str = private unnamed_addr constant [49 x i8] c"G-API has been compiled without OpenVINO support\00", align 1
@_ZTISt13runtime_error = external constant ptr
@llvm.global_ctors = appending global [1 x { i32, ptr, ptr }] [{ i32, ptr, ptr } { i32 65535, ptr @_GLOBAL__sub_I_govbackend.cpp, ptr null }]

declare void @_ZNSt8ios_base4InitC1Ev(ptr noundef nonnull align 1 dereferenceable(1)) unnamed_addr #0

; Function Attrs: nounwind
declare void @_ZNSt8ios_base4InitD1Ev(ptr noundef nonnull align 1 dereferenceable(1)) unnamed_addr #1

; Function Attrs: nofree nounwind
declare i32 @__cxa_atexit(ptr, ptr, ptr) local_unnamed_addr #2

; Function Attrs: mustprogress noreturn uwtable
define void @_ZN2cv4gapi2ov7backendEv(ptr dead_on_unwind noalias readnone sret(%"class.cv::gapi::GBackend") align 8 captures(none) %0) local_unnamed_addr #3 personality ptr @__gxx_personality_v0 {
  %2 = alloca %"class.std::runtime_error", align 8
  call void @llvm.lifetime.start.p0(i64 16, ptr nonnull %2) #7
  call void @_ZNSt13runtime_errorC1EPKc(ptr noundef nonnull align 8 dereferenceable(16) %2, ptr noundef nonnull @.str)
  invoke void @_ZN2cv4util11throw_errorISt13runtime_errorEEvOT_(ptr noundef nonnull align 8 dereferenceable(16) %2) #8
          to label %3 unwind label %4

3:                                                ; preds = %1
  unreachable

4:                                                ; preds = %1
  %5 = landingpad { ptr, i32 }
          cleanup
  call void @_ZNSt13runtime_errorD1Ev(ptr noundef nonnull align 8 dereferenceable(16) %2) #7
  call void @llvm.lifetime.end.p0(i64 16, ptr nonnull %2) #7
  resume { ptr, i32 } %5
}

; Function Attrs: mustprogress noreturn uwtable
define linkonce_odr hidden void @_ZN2cv4util11throw_errorISt13runtime_errorEEvOT_(ptr noundef nonnull align 8 dereferenceable(16) %0) local_unnamed_addr #3 comdat {
  %2 = tail call ptr @__cxa_allocate_exception(i64 16) #7
  tail call void @_ZNSt13runtime_errorC1EOS_(ptr noundef nonnull align 8 dereferenceable(16) %2, ptr noundef nonnull align 8 dereferenceable(16) %0) #7
  tail call void @__cxa_throw(ptr nonnull %2, ptr nonnull @_ZTISt13runtime_error, ptr nonnull @_ZNSt13runtime_errorD1Ev) #8
  unreachable
}

; Function Attrs: mustprogress nocallback nofree nosync nounwind willreturn memory(argmem: readwrite)
declare void @llvm.lifetime.start.p0(i64 immarg, ptr captures(none)) #4

declare void @_ZNSt13runtime_errorC1EPKc(ptr noundef nonnull align 8 dereferenceable(16), ptr noundef) unnamed_addr #0

declare i32 @__gxx_personality_v0(...)

; Function Attrs: nounwind
declare void @_ZNSt13runtime_errorD1Ev(ptr noundef nonnull align 8 dereferenceable(16)) unnamed_addr #1

; Function Attrs: mustprogress nocallback nofree nosync nounwind willreturn memory(argmem: readwrite)
declare void @llvm.lifetime.end.p0(i64 immarg, ptr captures(none)) #4

declare ptr @__cxa_allocate_exception(i64) local_unnamed_addr

; Function Attrs: nounwind
declare void @_ZNSt13runtime_errorC1EOS_(ptr noundef nonnull align 8 dereferenceable(16), ptr noundef nonnull align 8 dereferenceable(16)) unnamed_addr #1

; Function Attrs: cold noreturn
declare void @__cxa_throw(ptr, ptr, ptr) local_unnamed_addr #5

; Function Attrs: uwtable
define internal void @_GLOBAL__sub_I_govbackend.cpp() #6 section ".text.startup" {
  tail call void @_ZNSt8ios_base4InitC1Ev(ptr noundef nonnull align 1 dereferenceable(1) @_ZStL8__ioinit)
  %1 = tail call i32 @__cxa_atexit(ptr nonnull @_ZNSt8ios_base4InitD1Ev, ptr nonnull @_ZStL8__ioinit, ptr nonnull @__dso_handle) #7
  ret void
}


!llvm.module.flags = !{!0, !1, !2}

!0 = !{i32 1, !"wchar_size", i32 4}
!1 = !{i32 8, !"PIC Level", i32 2}
!2 = !{i32 7, !"uwtable", i32 2}
